target datalayout = "e-m:e-p270:32:32-p271:32:32-p272:64:64-i64:64-i128:128-f80:128-n8:16:32:64-S128"
target triple = "x86_64-pc-linux-gnu"

%struct.png_struct_def = type { [1 x %struct.__jmp_buf_tag], ptr, ptr, i64, ptr, ptr, ptr, ptr, ptr, ptr, ptr, ptr, ptr, i8, i8, i32, i32, i32, i32, %struct.z_stream_s, ptr, i32, i32, i32, i32, i32, i32, i32, i32, i32, i32, i32, i32, i32, i32, i32, i32, i32, i32, i32, i32, i32, i64, i32, i32, i32, ptr, ptr, ptr, ptr, i64, i32, i32, ptr, i16, i32, i16, i8, i8, i8, i8, i8, i8, i8, i8, i8, i8, i8, i8, i8, i8, i8, i16, i8, i32, %struct.png_color_16_struct, %struct.png_color_16_struct, ptr, i32, i32, %struct.png_xy, i32, i32, i32, i32, i32, ptr, ptr, ptr, ptr, ptr, ptr, %struct.png_color_8_struct, %struct.png_color_8_struct, ptr, %struct.png_color_16_struct, ptr, ptr, ptr, ptr, ptr, ptr, ptr, ptr, ptr, i32, i32, i64, i64, i64, i64, i32, i32, ptr, ptr, i32, [29 x i8], i32, ptr, ptr, i32, i32, ptr, i8, i8, i16, i16, ptr, i32, i8, ptr, ptr, ptr, ptr, ptr, ptr, ptr, i8, i32, i32, i32, i64, %struct.png_unknown_chunk_t, i64, ptr, i64, i32, i32, ptr, [4 x ptr] }
%struct.__jmp_buf_tag = type { [8 x i64], i32, %struct.__sigset_t }
%struct.__sigset_t = type { [16 x i64] }
%struct.z_stream_s = type { ptr, i32, i64, ptr, i32, i64, ptr, ptr, ptr, ptr, ptr, i32, i64, i64 }
%struct.png_xy = type { i32, i32, i32, i32, i32, i32, i32, i32 }
%struct.png_color_8_struct = type { i8, i8, i8, i8, i8 }
%struct.png_color_16_struct = type { i8, i16, i16, i16, i16 }
%struct.png_unknown_chunk_t = type { [5 x i8], ptr, i64, i8 }

@.str.18 = private unnamed_addr constant [59 x i8] c"invalid after png_start_read_image or png_read_update_info\00", align 1
@.str.19 = private unnamed_addr constant [44 x i8] c"invalid before the PNG header has been read\00", align 1

; Function Attrs: nounwind uwtable
define void @png_set_expand_gray_1_2_4_to_8(ptr noalias noundef %0) #0 {
  %2 = alloca ptr, align 8
  store ptr %0, ptr %2, align 8, !tbaa !3
  %3 = load ptr, ptr %2, align 8, !tbaa !3
  %4 = call i32 @png_rtran_ok(ptr noundef %3, i32 noundef 0)
  %5 = icmp eq i32 %4, 0
  br i1 %5, label %6, label %7

6:                                                ; preds = %1
  br label %12

7:                                                ; preds = %1
  %8 = load ptr, ptr %2, align 8, !tbaa !3
  %9 = getelementptr inbounds nuw %struct.png_struct_def, ptr %8, i32 0, i32 17
  %10 = load i32, ptr %9, align 4, !tbaa !27
  %11 = or i32 %10, 4096
  store i32 %11, ptr %9, align 4, !tbaa !27
  br label %12

12:                                               ; preds = %7, %6
  ret void
}

; Function Attrs: nounwind uwtable
define internal i32 @png_rtran_ok(ptr noalias noundef %0, i32 noundef %1) #0 {
  %3 = alloca i32, align 4
  %4 = alloca ptr, align 8
  %5 = alloca i32, align 4
  store ptr %0, ptr %4, align 8, !tbaa !3
  store i32 %1, ptr %5, align 4, !tbaa !8
  %6 = load ptr, ptr %4, align 8, !tbaa !3
  %7 = icmp ne ptr %6, null
  br i1 %7, label %8, label %34

8:                                                ; preds = %2
  %9 = load ptr, ptr %4, align 8, !tbaa !3
  %10 = getelementptr inbounds nuw %struct.png_struct_def, ptr %9, i32 0, i32 16
  %11 = load i32, ptr %10, align 8, !tbaa !10
  %12 = and i32 %11, 64
  %13 = icmp ne i32 %12, 0
  br i1 %13, label %14, label %16

14:                                               ; preds = %8
  %15 = load ptr, ptr %4, align 8, !tbaa !3
  call void @png_app_error(ptr noundef %15, ptr noundef @.str.18)
  br label %33

16:                                               ; preds = %8
  %17 = load i32, ptr %5, align 4, !tbaa !8
  %18 = icmp ne i32 %17, 0
  br i1 %18, label %19, label %27

19:                                               ; preds = %16
  %20 = load ptr, ptr %4, align 8, !tbaa !3
  %21 = getelementptr inbounds nuw %struct.png_struct_def, ptr %20, i32 0, i32 15
  %22 = load i32, ptr %21, align 4, !tbaa !33
  %23 = and i32 %22, 1
  %24 = icmp eq i32 %23, 0
  br i1 %24, label %25, label %27

25:                                               ; preds = %19
  %26 = load ptr, ptr %4, align 8, !tbaa !3
  call void @png_app_error(ptr noundef %26, ptr noundef @.str.19)
  br label %32

27:                                               ; preds = %19, %16
  %28 = load ptr, ptr %4, align 8, !tbaa !3
  %29 = getelementptr inbounds nuw %struct.png_struct_def, ptr %28, i32 0, i32 16
  %30 = load i32, ptr %29, align 8, !tbaa !10
  %31 = or i32 %30, 16384
  store i32 %31, ptr %29, align 8, !tbaa !10
  store i32 1, ptr %3, align 4
  br label %35

32:                                               ; preds = %25
  br label %33

33:                                               ; preds = %32, %14
  br label %34

34:                                               ; preds = %33, %2
  store i32 0, ptr %3, align 4
  br label %35

35:                                               ; preds = %34, %27
  %36 = load i32, ptr %3, align 4
  ret i32 %36
}

; Function Attrs: nounwind uwtable
define void @png_set_gray_to_rgb(ptr noalias noundef %0) #0 {
  %2 = alloca ptr, align 8
  store ptr %0, ptr %2, align 8, !tbaa !3
  %3 = load ptr, ptr %2, align 8, !tbaa !3
  %4 = call i32 @png_rtran_ok(ptr noundef %3, i32 noundef 0)
  %5 = icmp eq i32 %4, 0
  br i1 %5, label %6, label %7

6:                                                ; preds = %1
  br label %13

7:                                                ; preds = %1
  %8 = load ptr, ptr %2, align 8, !tbaa !3
  call void @png_set_expand_gray_1_2_4_to_8(ptr noundef %8)
  %9 = load ptr, ptr %2, align 8, !tbaa !3
  %10 = getelementptr inbounds nuw %struct.png_struct_def, ptr %9, i32 0, i32 17
  %11 = load i32, ptr %10, align 4, !tbaa !27
  %12 = or i32 %11, 16384
  store i32 %12, ptr %10, align 4, !tbaa !27
  br label %13

13:                                               ; preds = %7, %6
  ret void
}