; Function Attrs: nounwind uwtable
define void @png_set_gray_to_rgb(ptr noalias noundef %0) local_unnamed_addr #0 {
  %.not.i = icmp eq ptr %0, null
  br i1 %.not.i, label %png_rtran_ok.exit.thread, label %2

2:                                                ; preds = %1
  %3 = getelementptr inbounds nuw i8, ptr %0, i64 304
  %4 = load i32, ptr %3, align 8, !tbaa !3, !alias.scope !113
  %5 = and i32 %4, 64
  %.not8.i = icmp eq i32 %5, 0
  br i1 %.not8.i, label %png_set_expand_gray_1_2_4_to_8.exit, label %6

6:                                                ; preds = %2
  tail call void @png_app_error(ptr noundef nonnull %0, ptr noundef nonnull @.str.18) #11
  br label %png_rtran_ok.exit.thread

png_set_expand_gray_1_2_4_to_8.exit:              ; preds = %2
  %7 = or i32 %4, 16384
  store i32 %7, ptr %3, align 8, !tbaa !3, !alias.scope !116
  %8 = getelementptr inbounds nuw i8, ptr %0, i64 308
  %9 = load i32, ptr %8, align 4, !tbaa !25, !alias.scope !121
  %10 = or i32 %9, 20480
  store i32 %10, ptr %8, align 4, !tbaa !25
  br label %png_rtran_ok.exit.thread

png_rtran_ok.exit.thread:                         ; preds = %1, %6, %png_set_expand_gray_1_2_4_to_8.exit
  ret void
}